; Function Attrs: nounwind uwtable
define hidden range(i32 -1, 1) i32 @ps_update_timestamp_files(ptr noundef readonly captures(none) %0, ptr noundef %1, ptr noundef readonly captures(none) %2, i64 %3) #0 {
  %5 = alloca [4096 x i8], align 16
  call void @llvm.lifetime.start.p0(i64 4096, ptr nonnull %5) #15
  %6 = load ptr, ptr %0, align 8, !tbaa !24
  %.not.i = icmp eq ptr %6, null
  br i1 %.not.i, label %ps_files_path_create.exit.thread, label %7

7:                                                ; preds = %4
  %8 = getelementptr inbounds nuw i8, ptr %1, i64 16
  %9 = load i64, ptr %8, align 8, !tbaa !22
  %10 = getelementptr inbounds nuw i8, ptr %6, i64 16
  %11 = load i64, ptr %10, align 8, !tbaa !16
  %.not40.i = icmp ugt i64 %9, %11
  br i1 %.not40.i, label %12, label %ps_files_path_create.exit.thread

12:                                               ; preds = %7
  %13 = getelementptr inbounds nuw i8, ptr %6, i64 8
  %14 = load ptr, ptr %13, align 8, !tbaa !23
  %15 = getelementptr inbounds nuw i8, ptr %14, i64 16
  %16 = load i64, ptr %15, align 8, !tbaa !22
  %17 = shl i64 %11, 1
  %18 = add i64 %9, -4086
  %19 = add i64 %18, %17
  %20 = add i64 %19, %16
  %21 = icmp ult i64 %20, -4097
  br i1 %21, label %ps_files_path_create.exit.thread, label %22

22:                                               ; preds = %12
  %23 = getelementptr inbounds nuw i8, ptr %1, i64 24
  %24 = getelementptr inbounds nuw i8, ptr %14, i64 24
  call void @llvm.memcpy.p0.p0.i64(ptr nonnull align 16 %5, ptr nonnull align 8 %24, i64 %16, i1 false)
  %25 = getelementptr inbounds nuw i8, ptr %5, i64 %16
  store i8 47, ptr %25, align 1, !tbaa !4
  %.041.i = add i64 %16, 1
  %26 = trunc i64 %11 to i32
  %27 = icmp sgt i32 %26, 0
  br i1 %27, label %.lr.ph.i, label %.loopexit

.lr.ph.i:                                         ; preds = %22, %.lr.ph.i
  %.045.i = phi i64 [ %.0.i, %.lr.ph.i ], [ %.041.i, %22 ]
  %.0.in44.i = phi i64 [ %30, %.lr.ph.i ], [ %16, %22 ]
  %.03443.i = phi i32 [ %33, %.lr.ph.i ], [ 0, %22 ]
  %.03542.i = phi ptr [ %28, %.lr.ph.i ], [ %23, %22 ]
  %28 = getelementptr inbounds nuw i8, ptr %.03542.i, i64 1
  %29 = load i8, ptr %.03542.i, align 1, !tbaa !4
  %30 = add i64 %.0.in44.i, 2
  %31 = getelementptr inbounds nuw i8, ptr %5, i64 %.045.i
  store i8 %29, ptr %31, align 1, !tbaa !4
  %32 = getelementptr inbounds nuw i8, ptr %5, i64 %30
  store i8 47, ptr %32, align 1, !tbaa !4
  %33 = add nuw nsw i32 %.03443.i, 1
  %.0.i = add i64 %.0.in44.i, 3
  %exitcond.not = icmp eq i32 %33, %26
  br i1 %exitcond.not, label %.loopexit, label %.lr.ph.i

.loopexit:                                        ; preds = %.lr.ph.i, %22
  %.0.in.lcssa.i = phi i64 [ %16, %22 ], [ %30, %.lr.ph.i ]
  %.0.lcssa.i = phi i64 [ %.041.i, %22 ], [ %.0.i, %.lr.ph.i ]
  %34 = getelementptr inbounds nuw i8, ptr %5, i64 %.0.lcssa.i
  call void @llvm.memcpy.p0.p0.i64(ptr noundef nonnull align 1 dereferenceable(5) %34, ptr noundef nonnull align 1 dereferenceable(5) @.str.12, i64 5, i1 false)
  %35 = getelementptr i8, ptr %5, i64 %.0.in.lcssa.i
  %36 = getelementptr i8, ptr %35, i64 6
  call void @llvm.memcpy.p0.p0.i64(ptr nonnull align 1 %36, ptr nonnull readonly align 8 %23, i64 %9, i1 false)
  %37 = getelementptr i8, ptr %36, i64 %9
  store i8 0, ptr %37, align 1, !tbaa !4
  %38 = call i32 @utime(ptr noundef nonnull %5, ptr noundef null) #15
  %39 = icmp eq i32 %38, -1
  br i1 %39, label %40, label %ps_files_path_create.exit.thread

40:                                               ; preds = %.loopexit
  %41 = tail call fastcc i32 @ps_files_write(ptr noundef nonnull %6, ptr noundef %1, ptr noundef %2)
  br label %ps_files_path_create.exit.thread

ps_files_path_create.exit.thread:                 ; preds = %4, %7, %12, %.loopexit, %40
  %.0 = phi i32 [ %41, %40 ], [ 0, %.loopexit ], [ -1, %12 ], [ -1, %7 ], [ -1, %4 ]
  call void @llvm.lifetime.end.p0(i64 4096, ptr nonnull %5) #15
  ret i32 %.0
}